target datalayout = "e-m:e-p270:32:32-p271:32:32-p272:64:64-i64:64-i128:128-f80:128-n8:16:32:64-S128"
target triple = "x86_64-pc-linux-gnu"

; Function Attrs: nounwind uwtable
define float @spline_cubic_val(i32 noundef %0, ptr noundef %1, float noundef %2, ptr noundef %3, ptr noundef %4) #0 {
  %6 = alloca i32, align 4
  %7 = alloca ptr, align 8
  %8 = alloca float, align 4
  %9 = alloca ptr, align 8
  %10 = alloca ptr, align 8
  %11 = alloca i32, align 4
  %12 = alloca i32, align 4
  %13 = alloca i32, align 4
  %14 = alloca float, align 4
  %15 = alloca float, align 4
  %16 = alloca float, align 4
  store i32 %0, ptr %6, align 4, !tbaa !6
  store ptr %1, ptr %7, align 8, !tbaa !10
  store float %2, ptr %8, align 4, !tbaa !13
  store ptr %3, ptr %9, align 8, !tbaa !10
  store ptr %4, ptr %10, align 8, !tbaa !10
  call void @llvm.lifetime.start.p0(i64 4, ptr %11) #6
  store i32 0, ptr %11, align 4, !tbaa !6
  %17 = load i32, ptr %6, align 4, !tbaa !6
  %18 = sub nsw i32 %17, 2
  store i32 %18, ptr %11, align 4, !tbaa !6
  call void @llvm.lifetime.start.p0(i64 4, ptr %12) #6
  store i32 0, ptr %12, align 4, !tbaa !6
  br label %19

19:                                               ; preds = %37, %5
  %20 = load i32, ptr %12, align 4, !tbaa !6
  %21 = load i32, ptr %6, align 4, !tbaa !6
  %22 = sub nsw i32 %21, 1
  %23 = icmp slt i32 %20, %22
  br i1 %23, label %25, label %24

24:                                               ; preds = %19
  store i32 2, ptr %13, align 4
  br label %40

25:                                               ; preds = %19
  %26 = load float, ptr %8, align 4, !tbaa !13
  %27 = load ptr, ptr %7, align 8, !tbaa !10
  %28 = load i32, ptr %12, align 4, !tbaa !6
  %29 = add nsw i32 %28, 1
  %30 = sext i32 %29 to i64
  %31 = getelementptr inbounds float, ptr %27, i64 %30
  %32 = load float, ptr %31, align 4, !tbaa !13
  %33 = fcmp reassoc nsz arcp contract afn olt float %26, %32
  br i1 %33, label %34, label %36

34:                                               ; preds = %25
  %35 = load i32, ptr %12, align 4, !tbaa !6
  store i32 %35, ptr %11, align 4, !tbaa !6
  store i32 2, ptr %13, align 4
  br label %40

36:                                               ; preds = %25
  br label %37

37:                                               ; preds = %36
  %38 = load i32, ptr %12, align 4, !tbaa !6
  %39 = add nsw i32 %38, 1
  store i32 %39, ptr %12, align 4, !tbaa !6
  br label %19

40:                                               ; preds = %34, %24
  call void @llvm.lifetime.end.p0(i64 4, ptr %12) #6
  br label %41

41:                                               ; preds = %40
  call void @llvm.lifetime.start.p0(i64 4, ptr %14) #6
  %42 = load float, ptr %8, align 4, !tbaa !13
  %43 = load ptr, ptr %7, align 8, !tbaa !10
  %44 = load i32, ptr %11, align 4, !tbaa !6
  %45 = sext i32 %44 to i64
  %46 = getelementptr inbounds float, ptr %43, i64 %45
  %47 = load float, ptr %46, align 4, !tbaa !13
  %48 = fsub reassoc nsz arcp contract afn float %42, %47
  store float %48, ptr %14, align 4, !tbaa !13
  call void @llvm.lifetime.start.p0(i64 4, ptr %15) #6
  %49 = load ptr, ptr %7, align 8, !tbaa !10
  %50 = load i32, ptr %11, align 4, !tbaa !6
  %51 = add nsw i32 %50, 1
  %52 = sext i32 %51 to i64
  %53 = getelementptr inbounds float, ptr %49, i64 %52
  %54 = load float, ptr %53, align 4, !tbaa !13
  %55 = load ptr, ptr %7, align 8, !tbaa !10
  %56 = load i32, ptr %11, align 4, !tbaa !6
  %57 = sext i32 %56 to i64
  %58 = getelementptr inbounds float, ptr %55, i64 %57
  %59 = load float, ptr %58, align 4, !tbaa !13
  %60 = fsub reassoc nsz arcp contract afn float %54, %59
  store float %60, ptr %15, align 4, !tbaa !13
  call void @llvm.lifetime.start.p0(i64 4, ptr %16) #6
  %61 = load ptr, ptr %9, align 8, !tbaa !10
  %62 = load i32, ptr %11, align 4, !tbaa !6
  %63 = sext i32 %62 to i64
  %64 = getelementptr inbounds float, ptr %61, i64 %63
  %65 = load float, ptr %64, align 4, !tbaa !13
  %66 = fpext reassoc nsz arcp contract afn float %65 to double
  %67 = load float, ptr %14, align 4, !tbaa !13
  %68 = fpext reassoc nsz arcp contract afn float %67 to double
  %69 = load ptr, ptr %9, align 8, !tbaa !10
  %70 = load i32, ptr %11, align 4, !tbaa !6
  %71 = add nsw i32 %70, 1
  %72 = sext i32 %71 to i64
  %73 = getelementptr inbounds float, ptr %69, i64 %72
  %74 = load float, ptr %73, align 4, !tbaa !13
  %75 = load ptr, ptr %9, align 8, !tbaa !10
  %76 = load i32, ptr %11, align 4, !tbaa !6
  %77 = sext i32 %76 to i64
  %78 = getelementptr inbounds float, ptr %75, i64 %77
  %79 = load float, ptr %78, align 4, !tbaa !13
  %80 = fsub reassoc nsz arcp contract afn float %74, %79
  %81 = load float, ptr %15, align 4, !tbaa !13
  %82 = fdiv reassoc nsz arcp contract afn float %80, %81
  %83 = fpext reassoc nsz arcp contract afn float %82 to double
  %84 = load ptr, ptr %10, align 8, !tbaa !10
  %85 = load i32, ptr %11, align 4, !tbaa !6
  %86 = add nsw i32 %85, 1
  %87 = sext i32 %86 to i64
  %88 = getelementptr inbounds float, ptr %84, i64 %87
  %89 = load float, ptr %88, align 4, !tbaa !13
  %90 = fpext reassoc nsz arcp contract afn float %89 to double
  %91 = fdiv reassoc nsz arcp contract afn double %90, 6.000000e+00
  %92 = load ptr, ptr %10, align 8, !tbaa !10
  %93 = load i32, ptr %11, align 4, !tbaa !6
  %94 = sext i32 %93 to i64
  %95 = getelementptr inbounds float, ptr %92, i64 %94
  %96 = load float, ptr %95, align 4, !tbaa !13
  %97 = fpext reassoc nsz arcp contract afn float %96 to double
  %98 = fdiv reassoc nsz arcp contract afn double %97, 3.000000e+00
  %99 = fadd reassoc nsz arcp contract afn double %91, %98
  %100 = load float, ptr %15, align 4, !tbaa !13
  %101 = fpext reassoc nsz arcp contract afn float %100 to double
  %102 = fmul reassoc nsz arcp contract afn double %99, %101
  %103 = fsub reassoc nsz arcp contract afn double %83, %102
  %104 = load float, ptr %14, align 4, !tbaa !13
  %105 = fpext reassoc nsz arcp contract afn float %104 to double
  %106 = load ptr, ptr %10, align 8, !tbaa !10
  %107 = load i32, ptr %11, align 4, !tbaa !6
  %108 = sext i32 %107 to i64
  %109 = getelementptr inbounds float, ptr %106, i64 %108
  %110 = load float, ptr %109, align 4, !tbaa !13
  %111 = fpext reassoc nsz arcp contract afn float %110 to double
  %112 = fmul reassoc nsz arcp contract afn double 5.000000e-01, %111
  %113 = load float, ptr %14, align 4, !tbaa !13
  %114 = fpext reassoc nsz arcp contract afn float %113 to double
  %115 = load ptr, ptr %10, align 8, !tbaa !10
  %116 = load i32, ptr %11, align 4, !tbaa !6
  %117 = add nsw i32 %116, 1
  %118 = sext i32 %117 to i64
  %119 = getelementptr inbounds float, ptr %115, i64 %118
  %120 = load float, ptr %119, align 4, !tbaa !13
  %121 = load ptr, ptr %10, align 8, !tbaa !10
  %122 = load i32, ptr %11, align 4, !tbaa !6
  %123 = sext i32 %122 to i64
  %124 = getelementptr inbounds float, ptr %121, i64 %123
  %125 = load float, ptr %124, align 4, !tbaa !13
  %126 = fsub reassoc nsz arcp contract afn float %120, %125
  %127 = fpext reassoc nsz arcp contract afn float %126 to double
  %128 = load float, ptr %15, align 4, !tbaa !13
  %129 = fpext reassoc nsz arcp contract afn float %128 to double
  %130 = fmul reassoc nsz arcp contract afn double 6.000000e+00, %129
  %131 = fdiv reassoc nsz arcp contract afn double %127, %130
  %132 = fmul reassoc nsz arcp contract afn double %114, %131
  %133 = fadd reassoc nsz arcp contract afn double %112, %132
  %134 = fmul reassoc nsz arcp contract afn double %105, %133
  %135 = fadd reassoc nsz arcp contract afn double %103, %134
  %136 = fmul reassoc nsz arcp contract afn double %68, %135
  %137 = fadd reassoc nsz arcp contract afn double %66, %136
  %138 = fptrunc reassoc nsz arcp contract afn double %137 to float
  store float %138, ptr %16, align 4, !tbaa !13
  %139 = load float, ptr %16, align 4, !tbaa !13
  store i32 1, ptr %13, align 4
  call void @llvm.lifetime.end.p0(i64 4, ptr %16) #6
  call void @llvm.lifetime.end.p0(i64 4, ptr %15) #6
  call void @llvm.lifetime.end.p0(i64 4, ptr %14) #6
  call void @llvm.lifetime.end.p0(i64 4, ptr %11) #6
  ret float %139
}