; Function Attrs: nofree norecurse nosync nounwind memory(argmem: read) uwtable
define float @spline_cubic_val(i32 noundef %0, ptr noundef readonly captures(none) %1, float noundef %2, ptr noundef readonly captures(none) %3, ptr noundef readonly captures(none) %4) #0 {
  %6 = add nsw i32 %0, -2
  %7 = tail call i32 @llvm.smax.i32(i32 %0, i32 1)
  %smax = add nsw i32 %7, -1
  %wide.trip.count = zext nneg i32 %smax to i64
  br label %8

8:                                                ; preds = %9, %5
  %indvars.iv = phi i64 [ %indvars.iv.next, %9 ], [ 0, %5 ]
  %exitcond.not = icmp eq i64 %indvars.iv, %wide.trip.count
  br i1 %exitcond.not, label %.split.loop.exit39, label %9

9:                                                ; preds = %8
  %indvars.iv.next = add nuw nsw i64 %indvars.iv, 1
  %10 = getelementptr inbounds nuw float, ptr %1, i64 %indvars.iv.next
  %11 = load float, ptr %10, align 4, !tbaa !6
  %12 = fcmp reassoc nsz arcp contract afn olt float %2, %11
  br i1 %12, label %.split.loop.exit, label %8

.split.loop.exit:                                 ; preds = %9
  %13 = trunc nuw nsw i64 %indvars.iv to i32
  br label %.split.loop.exit39

.split.loop.exit39:                               ; preds = %8, %.split.loop.exit
  %.0 = phi i32 [ %13, %.split.loop.exit ], [ %6, %8 ]
  %14 = sext i32 %.0 to i64
  %15 = getelementptr inbounds float, ptr %1, i64 %14
  %16 = load float, ptr %15, align 4, !tbaa !6
  %17 = fsub reassoc nsz arcp contract afn float %2, %16
  %18 = add nsw i32 %.0, 1
  %19 = sext i32 %18 to i64
  %20 = getelementptr inbounds float, ptr %1, i64 %19
  %21 = load float, ptr %20, align 4, !tbaa !6
  %22 = fsub reassoc nsz arcp contract afn float %21, %16
  %23 = getelementptr inbounds float, ptr %3, i64 %14
  %24 = load float, ptr %23, align 4, !tbaa !6
  %25 = fpext reassoc nsz arcp contract afn float %24 to double
  %26 = fpext reassoc nsz arcp contract afn float %17 to double
  %27 = getelementptr inbounds float, ptr %3, i64 %19
  %28 = load float, ptr %27, align 4, !tbaa !6
  %29 = fsub reassoc nsz arcp contract afn float %28, %24
  %30 = fdiv reassoc nsz arcp contract afn float %29, %22
  %31 = fpext reassoc nsz arcp contract afn float %30 to double
  %32 = getelementptr inbounds float, ptr %4, i64 %19
  %33 = load float, ptr %32, align 4, !tbaa !6
  %34 = fpext reassoc nsz arcp contract afn float %33 to double
  %35 = fmul reassoc nsz arcp contract afn double %34, 0x3FC5555555555555
  %36 = getelementptr inbounds float, ptr %4, i64 %14
  %37 = load float, ptr %36, align 4, !tbaa !6
  %38 = fpext reassoc nsz arcp contract afn float %37 to double
  %39 = fmul reassoc nsz arcp contract afn double %38, 0x3FD5555555555555
  %40 = fadd reassoc nsz arcp contract afn double %39, %35
  %41 = fpext reassoc nsz arcp contract afn float %22 to double
  %42 = fmul reassoc nsz arcp contract afn double %40, %41
  %43 = fsub reassoc nsz arcp contract afn double %31, %42
  %44 = fmul reassoc nsz arcp contract afn double %38, 5.000000e-01
  %45 = fsub reassoc nsz arcp contract afn float %33, %37
  %46 = fpext reassoc nsz arcp contract afn float %45 to double
  %47 = fmul reassoc nsz arcp contract afn double %41, 6.000000e+00
  %48 = fmul reassoc nsz arcp contract afn double %46, %26
  %49 = fdiv reassoc nsz arcp contract afn double %48, %47
  %50 = fadd reassoc nsz arcp contract afn double %49, %44
  %51 = fmul reassoc nsz arcp contract afn double %50, %26
  %52 = fadd reassoc nsz arcp contract afn double %43, %51
  %53 = fmul reassoc nsz arcp contract afn double %52, %26
  %54 = fadd reassoc nsz arcp contract afn double %53, %25
  %55 = fptrunc reassoc nsz arcp contract afn double %54 to float
  ret float %55
}